(lp0
(S'government agency'
p1
S'collect'
p2
S'such image'
p3
S'Such images will only be shared with government agencies as required by local law, or with third parties for the purpose of providing services to Tesla in the context of the purposes described above.'
p4
S'share'
p5
tp6
a(S'we_implicit'
p7
S'collect'
p8
S'such image'
p9
S'Such images will only be shared with government agencies as required by local law, or with third parties for the purpose of providing services to Tesla in the context of the purposes described above.'
p10
S'share'
p11
tp12
a(S'third party'
p13
S'collect'
p14
S'such image'
p15
S'Such images will only be shared with government agencies as required by local law, or with third parties for the purpose of providing services to Tesla in the context of the purposes described above.'
p16
S'share'
p17
tp18
a(S'we'
p19
S'collect'
p20
S'datum'
p21
S'Even if you choose to opt-in, unless we receive the data as a result of a safety event (a vehicle collision or airbag deployment), camera recordings remain anonymous and are not linked to you or your vehicle.'
p22
S'receive'
p23
tp24
a(S'we'
p25
S'collect'
p26
S'variety of information'
p27
S'When you visit our website, stores and galleries, attend a Tesla event, perform a test drive, contact us with questions or for product information (in person, online, telephone, and email), we may collect a variety of information from or about you, your vehicle, devices, or from third parties.'
p28
S'collect'
p29
tp30
a(S'we'
p31
S'collect'
p32
S'information about you'
p33
S'We may also receive information about you from sources such as public databases, joint marketing partners, certified installers, affiliates and business partners, and social media platforms.'
p34
S'receive'
p35
tp36
a(S'us'
p37
S'collect'
p38
S'how many visit our website receive'
p39
S'This allows us to collect and store certain information on website visits to help us understand, for example, how many visits our websites receive, which pages are the most popular, how many customers receive an error message, etc.'
p40
S'collect'
p41
tp42
a(S'us'
p43
S'collect'
p44
S'certain information on website visit'
p45
S'This allows us to collect and store certain information on website visits to help us understand, for example, how many visits our websites receive, which pages are the most popular, how many customers receive an error message, etc.'
p46
S'collect'
p47
tp48
a(S'us'
p49
S'collect'
p50
S'certain information on website visit'
p51
S'This allows us to collect and store certain information on website visits to help us understand, for example, how many visits our websites receive, which pages are the most popular, how many customers receive an error message, etc.'
p52
S'store'
p53
tp54
a(S'us'
p55
S'collect'
p56
S'how many visit our website receive'
p57
S'This allows us to collect and store certain information on website visits to help us understand, for example, how many visits our websites receive, which pages are the most popular, how many customers receive an error message, etc.'
p58
S'store'
p59
tp60
a(S'we'
p61
S'collect'
p62
S'other information'
p63
S'If you are a Tesla product or service owner, we may also collect other information from or about you, your Tesla vehicle, energy product, or from third parties.'
p64
S'collect'
p65
tp66
a(S'we'
p67
S'collect'
p68
S'such information'
p69
S'We may collect such information either through remote access or in person (for example, during a service appointment).'
p70
S'collect'
p71
tp72
a(S'we_implicit'
p73
S'collect'
p74
S'information'
p75
S'This information is used to triage and fix potential issues, and continuously improve your vehicle and services to you.'
p76
S'use'
p77
tp78
a(S'we_implicit'
p79
S'collect'
p80
S"your vehicle's location"
p81
S"For safety purposes, your vehicle's location may be used when you experience a safety event (such as a collision, an airbag deployment, or automatic emergency braking event) to aid response efforts."
p82
S'use'
p83
tp84
a(S'we'
p85
S'collect'
p86
S'other vehicle datum'
p87
S"In order to help improve our products and services, we may collect and store other vehicle data that might contain information that identifies you or your vehicle's VIN, including: data about accidents or near accident-like circumstances involving your Tesla vehicle (for example, Airbag deployment or automatic emergency braking event); data about remote services (for example, remote lock/unlock, start/stop charge, and honk-the-horn commands); a data report to confirm that your vehicle is online together with information about the current software version and certain telematics data; data about any issues that could materially impair operation of your vehicle; data about any safety-critical issues; and data about each software and firmware update."
p88
S'collect'
p89
tp90
a(S'we'
p91
S'collect'
p92
S'other vehicle datum'
p93
S"In order to help improve our products and services, we may collect and store other vehicle data that might contain information that identifies you or your vehicle's VIN, including: data about accidents or near accident-like circumstances involving your Tesla vehicle (for example, Airbag deployment or automatic emergency braking event); data about remote services (for example, remote lock/unlock, start/stop charge, and honk-the-horn commands); a data report to confirm that your vehicle is online together with information about the current software version and certain telematics data; data about any issues that could materially impair operation of your vehicle; data about any safety-critical issues; and data about each software and firmware update."
p94
S'store'
p95
tp96
a(S'we'
p97
S'collect'
p98
S'datum'
p99
S'If enabled, we may share this data in a way that does not identify your account or VIN with partners in order to help us improve and provide the service to you.'
p100
S'share'
p101
tp102
a(S'vin'
p103
S'collect'
p104
S'datum'
p105
S'If enabled, we may share this data in a way that does not identify your account or VIN with partners in order to help us improve and provide the service to you.'
p106
S'share'
p107
tp108
a(S'partner'
p109
S'collect'
p110
S'datum'
p111
S'If enabled, we may share this data in a way that does not identify your account or VIN with partners in order to help us improve and provide the service to you.'
p112
S'share'
p113
tp114
a(S'we'
p115
S'collect'
p116
S'information regard charge rate'
p117
S'Charging information: We may collect information regarding the charge rate and charging stations used by you (including use of superchargers, as well as home or commercial outlets) in order to, for example, analyze which charging stations are being utilized, how long and efficient battery charges are, where additional charging stations are needed, and in some jurisdictions, participate in certain government incentive or credit programmes.'
p118
S'collect'
p119
tp120
a(S'us'
p121
S'collect'
p122
S'vehicle datum'
p123
S'However, if you no longer wish for us to collect vehicle data or any other data from your Tesla vehicle, please contact us to deactivate connectivity.'
p124
S'collect'
p125
tp126
a(S'us'
p127
S'collect'
p128
S'other datum'
p129
S'However, if you no longer wish for us to collect vehicle data or any other data from your Tesla vehicle, please contact us to deactivate connectivity.'
p130
S'collect'
p131
tp132
a(S'we'
p133
S'collect'
p134
S'basic error information'
p135
S'On specific events, we use diagnostic logs as basic error information to help determine whether the problems experienced can be addressed by an immediate or future software release.'
p136
S'use'
p137
tp138
a(S'we'
p139
S'collect'
p140
S'diagnostic log'
p141
S'On specific events, we use diagnostic logs as basic error information to help determine whether the problems experienced can be addressed by an immediate or future software release.'
p142
S'use'
p143
tp144
a(S'third_party_implicit'
p145
S'not_collect'
p146
S'in-vehicle browser history'
p147
S'To protect your privacy, your in-vehicle browser history and sign-in credentials are not shared with Tesla.'
p148
S'share'
p149
tp150
a(S'we_implicit'
p151
S'collect'
p152
S'in-vehicle browser history'
p153
S'To protect your privacy, your in-vehicle browser history and sign-in credentials are not shared with Tesla.'
p154
S'share'
p155
tp156
a(S'third_party_implicit'
p157
S'not_collect'
p158
S'tesla'
p159
S'To protect your privacy, your in-vehicle browser history and sign-in credentials are not shared with Tesla.'
p160
S'share'
p161
tp162
a(S'we_implicit'
p163
S'collect'
p164
S'sign-in credential'
p165
S'To protect your privacy, your in-vehicle browser history and sign-in credentials are not shared with Tesla.'
p166
S'share'
p167
tp168
a(S'third_party_implicit'
p169
S'not_collect'
p170
S'sign-in credential'
p171
S'To protect your privacy, your in-vehicle browser history and sign-in credentials are not shared with Tesla.'
p172
S'share'
p173
tp174
a(S'we_implicit'
p175
S'collect'
p176
S'tesla'
p177
S'To protect your privacy, your in-vehicle browser history and sign-in credentials are not shared with Tesla.'
p178
S'share'
p179
tp180
a(S'we_implicit'
p181
S'collect'
p182
S'sentry mode footage'
p183
S'Sentry Mode footage is not transmitted to Tesla.'
p184
S'transmit'
p185
tp186
a(S'third_party_implicit'
p187
S'not_collect'
p188
S'sentry mode footage'
p189
S'Sentry Mode footage is not transmitted to Tesla.'
p190
S'transmit'
p191
tp192
a(S'we_implicit'
p193
S'collect'
p194
S'sentry mode footage'
p195
S"Sentry Mode footage is saved to onboard memory and can be viewed directly from the vehicle's touchscreen."
p196
S'save'
p197
tp198
a(S'we_implicit'
p199
S'collect'
p200
S'video'
p201
S'No videos are transmitted absent a safety event, period.'
p202
S'transmit'
p203
tp204
a(S'third_party_implicit'
p205
S'collect'
p206
S'video'
p207
S'No videos are transmitted absent a safety event, period.'
p208
S'transmit'
p209
tp210
a(S'we_implicit'
p211
S'collect'
p212
S'clip'
p213
S'These clips will be used to develop and improve safety features and software enhancements, such as collision avoidance updates.'
p214
S'use'
p215
tp216
a(S'we'
p217
S'collect'
p218
S'information'
p219
S'We may use the information we collect to 1.'
p220
S'use'
p221
tp222
a(S'we'
p223
S'collect'
p224
S'information'
p225
S'We may use the information we collect to 2.'
p226
S'use'
p227
tp228
a(S'we'
p229
S'collect'
p230
S'information'
p231
S'We may use the information we collect to 3.'
p232
S'use'
p233
tp234
a(S'we'
p235
S'collect'
p236
S'datum'
p237
S'When you contact us for information or make a purchase, we may use the data collected for a variety of purposes.'
p238
S'use'
p239
tp240
a(S'we'
p241
S'collect'
p242
S'personal datum'
p243
S'Below are examples of what we may use your personal data for in delivering the most seamless vehicle and energy experience imaginable.'
p244
S'use'
p245
tp246
a(S'we'
p247
S'collect'
p248
S'information that personally identify you'
p249
S'We do not share information that personally identifies you with third parties for their marketing purposes unless you opt-in to that sharing.'
p250
S'share'
p251
tp252
a(S'third party'
p253
S'collect'
p254
S'information that personally identify you'
p255
S'We do not share information that personally identifies you with third parties for their marketing purposes unless you opt-in to that sharing.'
p256
S'share'
p257
tp258
a(S'we'
p259
S'collect'
p260
S'information about you'
p261
S'We may also use and disclose information about you if we believe in good faith that that the law requires it for purposes of security, fulfilling our legal obligations (such subpoenas or court orders), law enforcement, or other issues of public importance, disclosure is necessary or appropriate.'
p262
S'disclose'
p263
tp264
a(S'third_party_implicit'
p265
S'collect'
p266
S'information about you'
p267
S'We may also use and disclose information about you if we believe in good faith that that the law requires it for purposes of security, fulfilling our legal obligations (such subpoenas or court orders), law enforcement, or other issues of public importance, disclosure is necessary or appropriate.'
p268
S'disclose'
p269
tp270
a(S'we'
p271
S'collect'
p272
S'information about you'
p273
S'We may also use and disclose information about you if we believe in good faith that that the law requires it for purposes of security, fulfilling our legal obligations (such subpoenas or court orders), law enforcement, or other issues of public importance, disclosure is necessary or appropriate.'
p274
S'use'
p275
tp276
a(S'we'
p277
S'collect'
p278
S'information about you'
p279
S'We may also share information about you, where there are legal grounds to do so, if we determine that disclosure is reasonably necessary to enforce our Terms of Use or protect our operations or customers.'
p280
S'share'
p281
tp282
a(S'third_party_implicit'
p283
S'collect'
p284
S'information about you'
p285
S'We may also share information about you, where there are legal grounds to do so, if we determine that disclosure is reasonably necessary to enforce our Terms of Use or protect our operations or customers.'
p286
S'share'
p287
tp288
a(S'we'
p289
S'collect'
p290
S'personal datum'
p291
S'Additionally, in the event of a reorganization, merger, change of control, or sale we may transfer any personal data we collect to the relevant third party.'
p292
S'transfer'
p293
tp294
a(S'third_party_implicit'
p295
S'collect'
p296
S'personal datum'
p297
S'Additionally, in the event of a reorganization, merger, change of control, or sale we may transfer any personal data we collect to the relevant third party.'
p298
S'transfer'
p299
tp300
a(S'we_implicit'
p301
S'collect'
p302
S'such information'
p303
S'Such information may be used for any purpose, including for example, for operational or research purposes, for industry analysis, to improve or modify our products and services, to better tailor our products and services to your needs, and where legally required.'
p304
S'use'
p305
tp306
a(S'business partner'
p307
S'collect'
p308
S'information'
p309
S'We may share information with our service providers, business partners and affiliates'
p310
S'share'
p311
tp312
a(S'our service provider'
p313
S'collect'
p314
S'information'
p315
S'We may share information with our service providers, business partners and affiliates'
p316
S'share'
p317
tp318
a(S'affiliate'
p319
S'collect'
p320
S'information'
p321
S'We may share information with our service providers, business partners and affiliates'
p322
S'share'
p323
tp324
a(S'we'
p325
S'collect'
p326
S'information'
p327
S'We may share information with our service providers, business partners and affiliates'
p328
S'share'
p329
tp330
a(S'we'
p331
S'collect'
p332
S'information'
p333
S'We may share information with third parties you authorize'
p334
S'share'
p335
tp336
a(S'third party'
p337
S'collect'
p338
S'information'
p339
S'We may share information with third parties you authorize'
p340
S'share'
p341
tp342
a(S'third party'
p343
S'collect'
p344
S'information'
p345
S'We may share information with other third parties as required by law'
p346
S'share'
p347
tp348
a(S'we'
p349
S'collect'
p350
S'information'
p351
S'We may share information with other third parties as required by law'
p352
S'share'
p353
tp354
a(S'third_party_implicit'
p355
S'collect'
p356
S'your information'
p357
S'Examples of when we may share your information include, payment processing, order fulfillment, product installation, customer service, marketing, financing, service or repair, and other similar services.'
p358
S'share'
p359
tp360
a(S'we'
p361
S'collect'
p362
S'your information'
p363
S'Examples of when we may share your information include, payment processing, order fulfillment, product installation, customer service, marketing, financing, service or repair, and other similar services.'
p364
S'share'
p365
tp366
a(S'anyone'
p367
S'not_collect'
p368
S'personal datum'
p369
S'We do not sell your personal data to anyone for any purpose, period.'
p370
S'sell'
p371
tp372
a(S'we'
p373
S'collect'
p374
S'personal datum'
p375
S'We do not sell your personal data to anyone for any purpose, period.'
p376
S'sell'
p377
tp378
a(S'channel partner'
p379
S'collect'
p380
S'information'
p381
S'In addition, we may share information with Third party service providers and channel partners to provide services such as website hosting, data analysis and storage, payment processing, order fulfillment and product installation, wireless connectivity to Tesla products, information technology and related infrastructure, customer service, product design, product diagnostics, maintenance or related services, email delivery, credit card processing, auditing, marketing, voice command processing, and other similar services.'
p382
S'share'
p383
tp384
a(S'third party service provider'
p385
S'collect'
p386
S'information'
p387
S'In addition, we may share information with Third party service providers and channel partners to provide services such as website hosting, data analysis and storage, payment processing, order fulfillment and product installation, wireless connectivity to Tesla products, information technology and related infrastructure, customer service, product design, product diagnostics, maintenance or related services, email delivery, credit card processing, auditing, marketing, voice command processing, and other similar services.'
p388
S'share'
p389
tp390
a(S'we'
p391
S'collect'
p392
S'information'
p393
S'In addition, we may share information with Third party service providers and channel partners to provide services such as website hosting, data analysis and storage, payment processing, order fulfillment and product installation, wireless connectivity to Tesla products, information technology and related infrastructure, customer service, product design, product diagnostics, maintenance or related services, email delivery, credit card processing, auditing, marketing, voice command processing, and other similar services.'
p394
S'share'
p395
tp396
a(S'third_party_implicit'
p397
S'collect'
p398
S'associate personal datum'
p399
S'For example, in the event you request service/repair of your vehicle from a service centre or body shop that is operated either by Tesla or by a third party, we may share information about your vehicle, repair, and associated personal data to optimise your experience, accurately price repairs, and improve our business practices.'
p400
S'share'
p401
tp402
a(S'we'
p403
S'collect'
p404
S'information about your vehicle'
p405
S'For example, in the event you request service/repair of your vehicle from a service centre or body shop that is operated either by Tesla or by a third party, we may share information about your vehicle, repair, and associated personal data to optimise your experience, accurately price repairs, and improve our business practices.'
p406
S'share'
p407
tp408
a(S'we'
p409
S'collect'
p410
S'associate personal datum'
p411
S'For example, in the event you request service/repair of your vehicle from a service centre or body shop that is operated either by Tesla or by a third party, we may share information about your vehicle, repair, and associated personal data to optimise your experience, accurately price repairs, and improve our business practices.'
p412
S'share'
p413
tp414
a(S'third_party_implicit'
p415
S'collect'
p416
S'information about your vehicle'
p417
S'For example, in the event you request service/repair of your vehicle from a service centre or body shop that is operated either by Tesla or by a third party, we may share information about your vehicle, repair, and associated personal data to optimise your experience, accurately price repairs, and improve our business practices.'
p418
S'share'
p419
tp420
a(S'party'
p421
S'collect'
p422
S'limited information about you'
p423
S'When you request Tesla to perform certain services, we share limited information about you and the vehicle with these parties to help provide you with an accurate repair estimate and to facilitate payment.'
p424
S'share'
p425
tp426
a(S'we'
p427
S'collect'
p428
S'limited information about you'
p429
S'When you request Tesla to perform certain services, we share limited information about you and the vehicle with these parties to help provide you with an accurate repair estimate and to facilitate payment.'
p430
S'share'
p431
tp432
a(S'your tesla product'
p433
S'collect'
p434
S'limited information'
p435
S'We share limited information from or about you or your Tesla products to allow you to take advantage of those services if you elect to utilize them, with such partners as finance institutions, leasing, registration, title companies, electric utilities, permitting authorities and insurance companies.'
p436
S'share'
p437
tp438
a(S'we'
p439
S'collect'
p440
S'limited information'
p441
S'We share limited information from or about you or your Tesla products to allow you to take advantage of those services if you elect to utilize them, with such partners as finance institutions, leasing, registration, title companies, electric utilities, permitting authorities and insurance companies.'
p442
S'share'
p443
tp444
a(S'we_implicit'
p445
S'collect'
p446
S'information about you'
p447
S'Note that some information about you is stored on certain Tesla products and may be accessible directly to the third party service centres or providers that you choose to utilize to diagnose or service your Tesla product.'
p448
S'store'
p449
tp450
a(S'us'
p451
S'collect'
p452
S'information'
p453
S"If you do so, you authorize us to share information with your social media account provider and you understand that the use of the information we share will be governed by the social media account provider's privacy notice."
p454
S'share'
p455
tp456
a(S'social medium account provider'
p457
S'collect'
p458
S'information'
p459
S"If you do so, you authorize us to share information with your social media account provider and you understand that the use of the information we share will be governed by the social media account provider's privacy notice."
p460
S'share'
p461
tp462
a(S'such individual'
p463
S'collect'
p464
S'information'
p465
S'In addition, our products and services are not directed to individuals under the age of sixteen, and we request that such individuals not provide any information to Tesla.'
p466
S'provide'
p467
tp468
a(S'third_party_implicit'
p469
S'not_collect'
p470
S'information'
p471
S'In addition, our products and services are not directed to individuals under the age of sixteen, and we request that such individuals not provide any information to Tesla.'
p472
S'provide'
p473
tp474
a(S'we_implicit'
p475
S'collect'
p476
S'your place of residence'
p477
S'By making a purchase or otherwise submitting your personal data to us, your information may be transferred to Tesla in the United States and countries other than your place of residence or in which the information was originally collected.'
p478
S'transfer'
p479
tp480
a(S'we_implicit'
p481
S'collect'
p482
S'information be originally'
p483
S'By making a purchase or otherwise submitting your personal data to us, your information may be transferred to Tesla in the United States and countries other than your place of residence or in which the information was originally collected.'
p484
S'collect'
p485
tp486
a(S'third_party_implicit'
p487
S'collect'
p488
S'your place of residence'
p489
S'By making a purchase or otherwise submitting your personal data to us, your information may be transferred to Tesla in the United States and countries other than your place of residence or in which the information was originally collected.'
p490
S'transfer'
p491
tp492
a(S'third_party_implicit'
p493
S'collect'
p494
S'your information'
p495
S'By making a purchase or otherwise submitting your personal data to us, your information may be transferred to Tesla in the United States and countries other than your place of residence or in which the information was originally collected.'
p496
S'transfer'
p497
tp498
a(S'we_implicit'
p499
S'collect'
p500
S'your information'
p501
S'By making a purchase or otherwise submitting your personal data to us, your information may be transferred to Tesla in the United States and countries other than your place of residence or in which the information was originally collected.'
p502
S'transfer'
p503
tp504
a(S'third_party_implicit'
p505
S'not_collect'
p506
S'your place of residence'
p507
S'By making a purchase or otherwise submitting your personal data to us, your information may be transferred to Tesla in the United States and countries other than your place of residence or in which the information was originally collected.'
p508
S'transfer'
p509
tp510
a(S'we'
p511
S'collect'
p512
S'more information about revision'
p513
S'Other times, we may provide you with additional notice (such as an email) with more information about the revisions.'
p514
S'provide'
p515
tp516
a(S'we'
p517
S'collect'
p518
S'other time'
p519
S'Other times, we may provide you with additional notice (such as an email) with more information about the revisions.'
p520
S'provide'
p521
tp522
a(S'we'
p523
S'collect'
p524
S'email'
p525
S'Other times, we may provide you with additional notice (such as an email) with more information about the revisions.'
p526
S'provide'
p527
tp528
a.