(dp0
Vexceptions
p1
(dp2
sVperformance
p3
(dp4
VendTime
p5
F1715932218.183199
sVstartTime
p6
F1715932190.764007
ssVall
p7
(dp8
VThey must also be happy for you to give their personal data to us.
p9
I1
sVUnder the Data Protection Laws, we are required to explain what personal data we collect from you, how and why we use this data (the "processing activity"), and for how long we keep it.
p10
I2
sVSince each item of data may be used for a number of different purposes, the determination of the relevant retention period depends on the nature of the data, why we process it and the legal and operational needs for keeping it.
p11
I1
sVIf we transfer personal information to countries outside of the EEA, we may rely on a decision from the European Commission (or, in the case of the UK, the Secretary of State) determining that the country provides an adequate level of protection to the Data Protection Laws (for example, an adequacy determination to transfer your data to our parent company located in Japan).
p12
I1
sVWe will disclose your personal information to third parties if we, or substantially all of our assets, are acquired by a third party, in which case personal information held by us about our customers will be one of the transferred assets;
p13
I1
sVThis right will only apply where (for example): we no longer need to use the personal information to achieve the purpose we collected it for;. where you withdraw your consent if we are using your personal information based on your consent; or.
p14
I2
sVIf you have any questions, please contact us so we can provide you with the further information you require.
p15
I1
sVWe may use your personal information to provide you with marketing and promotional materials (as stated above).
p16
I1
sVA right to withdraw your consent, where we are relying on it to use your personal information (for example, to provide you with marketing material).
p17
I1
sVWhen we contact you by e-mail we will use the following data: first and last name
p18
I1
sVWe will disclose your personal information to third parties in the event that we consider selling any business or assets, in which case we will disclose your personal information to any prospective buyers of such business or assets;
p19
I2
sVInformation about how you use the App, which parts of the App you visit, how you access them, which features you use more or less than others, and how you interact with the different parts of the App Information about the times when you access the App, the frequency, and how much time you spend on different parts of the App Information about where you access the App fromInformation about the language in which you view the App
p20
I1
sVIn the course of providing you the CCS, we will share data with SoundHound (who provide the Honda Personal Assistant service) and Worldline (who process payments on our behalf).
p21
I1
sVWe may transfer personal information to countries other than the country in which the data was originally collected, including countries outside the EU and the UK, such as India, in order to provide you with our services.
p22
I1
sVWe will disclose your personal information to third parties to protect our rights, property, or safety, or that of our people, or others.
p23
I1
sVWe will disclose your personal information to third parties in order to enforce or apply our terms and conditions, policies or any contract we have with you or have facilitated between you and a third party;
p24
I1
sVWe collect data about how you use CCS and the App for analytics purposes (as we describe in more detail below) using Google Analytics and Application Insights.
p25
I1
sVThese countries may not have the same data protection laws as the country in which you initially provided the information and may not provide the same level of protection.
p26
I1
sVWhat information is collected?
p27
I1
sVWe will disclose your personal information to third parties if we are under a duty to disclose or share your personal information in order to comply with any legal obligation or regulatory requirements, or otherwise for the prevention or detection of fraud or crime.
p28
I1
sVWe will disclose your personal information to third parties in the event we are the subject of any insolvency situation (e.g. the administration or liquidation);
p29
I1
sVWe obtain your mobile's Device ID from you (via the App).
p30
I1
ssVnegations
p31
(dp32
s.