(dp0
Vexceptions
p1
(dp2
VKia may transfer your personal data for the respective purposes to the recipients and categories of recipients listed below Private third parties, Affiliated or unaffiliated private bodies other than us that alone or jointly with others, determine the purposes and means of the processing of personal data.
p3
I2
sVAfter the conclusion of the respective agreement the text of the agreement will be provided to the User and is then stored by us but will no longer be accessible to the User, except upon request of the User.
p4
I1
ssVperformance
p5
(dp6
VendTime
p7
F1715932338.229806
sVstartTime
p8
F1715932249.570171
ssVall
p9
(dp10
VOnline Voice Recognition enables you to use spoken commands to access and control Kia Live services and draft and send text messages via a connected mobile device.
p11
I1
sVSection 8 shall be replaced as follows Your personal data is stored by Kia and our service providers, strictly to the extent necessary for the performance of our obligations and strictly for the time necessary to achieve the purposes for which the personal data is collected, in accordance with applicable data protection laws.
p12
I2
sVSection shall be replaced as follows your personal data is stored by Kia and our service providers, strictly to the extent necessary for the performance of our obligations and strictly for the time necessary to achieve the purposes for which the personal data is collected, in accordance with applicable data protection laws.
p13
I2
sVSection shall be amended as follows your personal data is stored by Kia and our service providers, strictly to the extent necessary for the performance of our obligations and strictly for the time necessary to achieve the purposes for which the personal data is collected, in accordance with applicable data protection laws.
p14
I4
sVYour personal data is stored by us and our service providers, to the extent necessary for the performance of our obligations and for the time necessary to achieve the purposes for which the personal data is collected, in accordance with applicable data protection laws.
p15
I1
sVHowever, the other user cannot access your live routes.
p16
I1
sVIf processing for another purpose takes place we will provide you with additional information, if appropriate.
p17
I2
sVData processors, Certain third parties, whether affiliated or unaffiliated, may receive your personal data to process such data on behalf of Kia under appropriate instructions as necessary for the respective processing purposes.
p18
I1
sVYour personal data may be processed for the respective purposes by the recipients and categories of recipients listed below Data processors, Certain third parties, whether affiliated or unaffiliated, may receive your personal data to process such data on behalf of KIA under appropriate instructions as necessary for the respective processing purposes.
p19
I1
sg4
I2
sVIf Offline Mode is turned on all Kia Connect functions are disabled and no personal data, in particular no location data (GPS), is collected.
p20
I1
sVUsers may use the contact details set out in Section 1 above in case of questions or complaints.
p21
I2
sVIn addition, voice samples and GPS data will be collected and stored for up to 90 days in order to perform and improve the Online Voice Recognition service based on legitimate interests.
p22
I1
sVOnline Voice Recognition enables the User to use spoken commands to access and control the Services and draft and send text messages via a connected mobile device.
p23
I1
sVIf a malfunction is detected, you receive a message explaining the malfunction detected, its severity as well as the recommended action to be taken.
p24
I1
sVSend to Car the App Service enables you to send a point of interest to the vehicle's navigation system and enables you to immediately receive location information once the vehicle's ignition is turned on.
p25
I1
sVYour personal data is stored by Kia and our service providers, strictly to the extent necessary for the performance of our obligations and strictly for the time necessary to achieve the purposes for which the personal data is collected, in accordance with applicable data protection laws.
p26
I2
sg3
I4
sVKia may transfer your personal data for the respective purposes to the recipients and categories of recipients listed below Data processors, Certain third parties, whether affiliated or unaffiliated, may receive your personal data to process such data on behalf of Kia under appropriate instructions as necessary for the respective processing purposes.
p27
I2
sVIf processing for another purpose takes place we may provide you with additional information.
p28
I1
ssVnegations
p29
(dp30
g16
(lp31
(I50
I51
tp32
ass.