(dp0
Vexceptions
p1
(dp2
VWe do not share information that personally identifies you with third parties for their marketing purposes unless you opt-in to that sharing.
p3
I1
sVBy making a purchase or otherwise submitting your personal data to us, your information may be transferred to Tesla in the United States and countries other than your place of residence or in which the information was originally collected.
p4
I1
ssVperformance
p5
(dp6
VendTime
p7
F1715932249.56627
sVstartTime
p8
F1715932218.191994
ssVall
p9
(dp10
VSentry Mode footage is not transmitted to Tesla.
p11
I1
sVWe share limited information from or about you or your Tesla products to allow you to take advantage of those services if you elect to utilize them, with such partners as finance institutions, leasing, registration, title companies, electric utilities, permitting authorities and insurance companies.
p12
I1
sVSuch images will only be shared with government agencies as required by local law, or with third parties for the purpose of providing services to Tesla in the context of the purposes described above.
p13
I1
sVAdditionally, in the event of a reorganization, merger, change of control, or sale we may transfer any personal data we collect to the relevant third party.
p14
I1
sVWe may share information with our service providers, business partners and affiliates
p15
I1
sVThese clips will be used to develop and improve safety features and software enhancements, such as collision avoidance updates.
p16
I1
sVEven if you choose to opt-in, unless we receive the data as a result of a safety event (a vehicle collision or airbag deployment), camera recordings remain anonymous and are not linked to you or your vehicle.
p17
I1
sVWe do not sell your personal data to anyone for any purpose, period.
p18
I1
sVWhen you contact us for information or make a purchase, we may use the data collected for a variety of purposes.
p19
I1
sVWe may also share information about you, where there are legal grounds to do so, if we determine that disclosure is reasonably necessary to enforce our Terms of Use or protect our operations or customers.
p20
I1
sVFor example, in the event you request service/repair of your vehicle from a service centre or body shop that is operated either by Tesla or by a third party, we may share information about your vehicle, repair, and associated personal data to optimise your experience, accurately price repairs, and improve our business practices.
p21
I1
sVIn addition, our products and services are not directed to individuals under the age of sixteen, and we request that such individuals not provide any information to Tesla.
p22
I1
sVBy making a purchase or otherwise submitting your personal data to us, your information may be transferred to Tesla in the United States and countries other than your place of residence or in which the information was originally collected.
p23
I3
sVHowever, if you no longer wish for us to collect vehicle data or any other data from your Tesla vehicle, please contact us to deactivate connectivity.
p24
I1
sVIn order to help improve our products and services, we may collect and store other vehicle data that might contain information that identifies you or your vehicle's VIN, including: data about accidents or near accident-like circumstances involving your Tesla vehicle (for example, Airbag deployment or automatic emergency braking event); data about remote services (for example, remote lock/unlock, start/stop charge, and honk-the-horn commands); a data report to confirm that your vehicle is online together with information about the current software version and certain telematics data; data about any issues that could materially impair operation of your vehicle; data about any safety-critical issues; and data about each software and firmware update.
p25
I1
sVWe may share information with third parties you authorize
p26
I1
sVExamples of when we may share your information include, payment processing, order fulfillment, product installation, customer service, marketing, financing, service or repair, and other similar services.
p27
I1
sVFor safety purposes, your vehicle's location may be used when you experience a safety event (such as a collision, an airbag deployment, or automatic emergency braking event) to aid response efforts.
p28
I1
sVCharging information: We may collect information regarding the charge rate and charging stations used by you (including use of superchargers, as well as home or commercial outlets) in order to, for example, analyze which charging stations are being utilized, how long and efficient battery charges are, where additional charging stations are needed, and in some jurisdictions, participate in certain government incentive or credit programmes.
p29
I1
sVSuch information may be used for any purpose, including for example, for operational or research purposes, for industry analysis, to improve or modify our products and services, to better tailor our products and services to your needs, and where legally required.
p30
I1
sVWe may also use and disclose information about you if we believe in good faith that that the law requires it for purposes of security, fulfilling our legal obligations (such subpoenas or court orders), law enforcement, or other issues of public importance, disclosure is necessary or appropriate.
p31
I1
sVWe may use the information we collect to 3.
p32
I1
sVTo protect your privacy, your in-vehicle browser history and sign-in credentials are not shared with Tesla.
p33
I1
sVIf you do so, you authorize us to share information with your social media account provider and you understand that the use of the information we share will be governed by the social media account provider's privacy notice.
p34
I1
sVWe may use the information we collect to 1.
p35
I1
sVWhen you request Tesla to perform certain services, we share limited information about you and the vehicle with these parties to help provide you with an accurate repair estimate and to facilitate payment.
p36
I1
sVIf enabled, we may share this data in a way that does not identify your account or VIN with partners in order to help us improve and provide the service to you.
p37
I1
sVWe may share information with other third parties as required by law
p38
I1
sVSentry Mode footage is saved to onboard memory and can be viewed directly from the vehicle's touchscreen.
p39
I1
sVIf you are a Tesla product or service owner, we may also collect other information from or about you, your Tesla vehicle, energy product, or from third parties.
p40
I1
sVWe may also receive information about you from sources such as public databases, joint marketing partners, certified installers, affiliates and business partners, and social media platforms.
p41
I1
sVThis information is used to triage and fix potential issues, and continuously improve your vehicle and services to you.
p42
I1
sVIn addition, we may share information with Third party service providers and channel partners to provide services such as website hosting, data analysis and storage, payment processing, order fulfillment and product installation, wireless connectivity to Tesla products, information technology and related infrastructure, customer service, product design, product diagnostics, maintenance or related services, email delivery, credit card processing, auditing, marketing, voice command processing, and other similar services.
p43
I1
sVOn specific events, we use diagnostic logs as basic error information to help determine whether the problems experienced can be addressed by an immediate or future software release.
p44
I1
sVNote that some information about you is stored on certain Tesla products and may be accessible directly to the third party service centres or providers that you choose to utilize to diagnose or service your Tesla product.
p45
I1
sVBelow are examples of what we may use your personal data for in delivering the most seamless vehicle and energy experience imaginable.
p46
I1
sVNo videos are transmitted absent a safety event, period.
p47
I1
sVWe may collect such information either through remote access or in person (for example, during a service appointment).
p48
I1
sVThis allows us to collect and store certain information on website visits to help us understand, for example, how many visits our websites receive, which pages are the most popular, how many customers receive an error message, etc.
p49
I1
sVWe may use the information we collect to 2.
p50
I1
sVOther times, we may provide you with additional notice (such as an email) with more information about the revisions.
p51
I1
sVWhen you visit our website, stores and galleries, attend a Tesla event, perform a test drive, contact us with questions or for product information (in person, online, telephone, and email), we may collect a variety of information from or about you, your vehicle, devices, or from third parties.
p52
I1
sg3
I1
ssVnegations
p53
(dp54
g3
(lp55
(I45
I46
tp56
asg11
(lp57
(I62
I63
tp58
asg33
(lp59
(I41
I42
tp60
asg22
(lp61
(I130
I131
tp62
asg18
(lp63
(I2
I3
tp64
ass.